target datalayout = "e-m:e-p270:32:32-p271:32:32-p272:64:64-i64:64-i128:128-f80:128-n8:16:32:64-S128"
target triple = "x86_64-pc-linux-gnu"

%struct.AVTextFormatContext = type { ptr, ptr, ptr, ptr, ptr, ptr, i32, i32, [12 x i32], [12 x [100 x i32]], [12 x ptr], [12 x %struct.AVBPrint], i32, i32, i32, i32, i32, ptr, i32, ptr, i32 }
%struct.AVBPrint = type { ptr, i32, i32, i32, [1 x i8], [1000 x i8] }
%struct.MermaidContext = type { ptr, ptr, i32, i32, i32, i32, i32, [12 x %struct.section_data], [12 x i32], [12 x %struct.AVBPrint], %struct.AVBPrint, ptr }
%struct.section_data = type { ptr, ptr, ptr, ptr, i32, i32, i32, i32 }

; Function Attrs: cold nounwind optsize uwtable
define internal i32 @mermaid_init(ptr noundef %0) #2 {
  %2 = alloca ptr, align 8
  %3 = alloca ptr, align 8
  store ptr %0, ptr %2, align 8, !tbaa !4
  call void @llvm.lifetime.start.p0(i64 8, ptr %3) #8
  %4 = load ptr, ptr %2, align 8, !tbaa !4
  %5 = getelementptr inbounds nuw %struct.AVTextFormatContext, ptr %4, i32 0, i32 4
  %6 = load ptr, ptr %5, align 8, !tbaa !11
  store ptr %6, ptr %3, align 8, !tbaa !20
  %7 = load ptr, ptr %3, align 8, !tbaa !20
  %8 = getelementptr inbounds nuw %struct.MermaidContext, ptr %7, i32 0, i32 10
  call void @av_bprint_init(ptr noundef %8, i32 noundef 0, i32 noundef -1)
  call void @llvm.lifetime.end.p0(i64 8, ptr %3) #8
  ret i32 0
}

; Function Attrs: cold nounwind optsize uwtable
define internal i32 @mermaid_init_html(ptr noundef %0) #2 {
  %2 = alloca i32, align 4
  %3 = alloca ptr, align 8
  %4 = alloca ptr, align 8
  %5 = alloca i32, align 4
  %6 = alloca i32, align 4
  store ptr %0, ptr %3, align 8, !tbaa !4
  call void @llvm.lifetime.start.p0(i64 8, ptr %4) #8
  %7 = load ptr, ptr %3, align 8, !tbaa !4
  %8 = getelementptr inbounds nuw %struct.AVTextFormatContext, ptr %7, i32 0, i32 4
  %9 = load ptr, ptr %8, align 8, !tbaa !11
  store ptr %9, ptr %4, align 8, !tbaa !20
  call void @llvm.lifetime.start.p0(i64 4, ptr %5) #8
  %10 = load ptr, ptr %3, align 8, !tbaa !4
  %11 = call i32 @mermaid_init(ptr noundef %10) #9
  store i32 %11, ptr %5, align 4, !tbaa !48
  %12 = load i32, ptr %5, align 4, !tbaa !48
  %13 = icmp slt i32 %12, 0
  br i1 %13, label %14, label %16

14:                                               ; preds = %1
  %15 = load i32, ptr %5, align 4, !tbaa !48
  store i32 %15, ptr %2, align 4
  store i32 1, ptr %6, align 4
  br label %19

16:                                               ; preds = %1
  %17 = load ptr, ptr %4, align 8, !tbaa !20
  %18 = getelementptr inbounds nuw %struct.MermaidContext, ptr %17, i32 0, i32 5
  store i32 1, ptr %18, align 4, !tbaa !38
  store i32 0, ptr %2, align 4
  store i32 1, ptr %6, align 4
  br label %19

19:                                               ; preds = %16, %14
  call void @llvm.lifetime.end.p0(i64 4, ptr %5) #8
  call void @llvm.lifetime.end.p0(i64 8, ptr %4) #8
  %20 = load i32, ptr %2, align 4
  ret i32 %20
}