; Function Attrs: cold nounwind optsize uwtable
define internal noundef i32 @mermaid_init_html(ptr noundef readonly captures(none) %0) #2 {
  %2 = getelementptr inbounds nuw i8, ptr %0, i64 32
  %3 = load ptr, ptr %2, align 8, !tbaa !4
  %4 = getelementptr inbounds nuw i8, ptr %3, i64 12952
  tail call void @av_bprint_init(ptr noundef nonnull %4, i32 noundef 0, i32 noundef -1) #10
  %5 = getelementptr inbounds nuw i8, ptr %3, i64 28
  store i32 1, ptr %5, align 4, !tbaa !28
  ret i32 0
}